; Function Attrs: nofree norecurse nosync nounwind memory(argmem: readwrite) uwtable
define internal void @SDL_Convert21ToStereo(ptr noundef writeonly captures(none) %0, ptr noundef readonly captures(none) %1, i32 noundef %2) #5 {
  %.not13 = icmp eq i32 %2, 0
  br i1 %.not13, label %._crit_edge, label %.lr.ph

.lr.ph:                                           ; preds = %3, %.lr.ph
  %.016 = phi ptr [ %15, %.lr.ph ], [ %0, %3 ]
  %.01115 = phi i32 [ %13, %.lr.ph ], [ %2, %3 ]
  %.01214 = phi ptr [ %14, %.lr.ph ], [ %1, %3 ]
  %4 = getelementptr inbounds nuw i8, ptr %.01214, i64 8
  %5 = load float, ptr %4, align 4
  %6 = load float, ptr %.01214, align 4
  %7 = fmul float %5, 0x3FC99999A0000000
  %8 = tail call float @llvm.fmuladd.f32(float %6, float 0x3FE99999A0000000, float %7)
  store float %8, ptr %.016, align 4
  %9 = getelementptr inbounds nuw i8, ptr %.01214, i64 4
  %10 = load float, ptr %9, align 4
  %11 = tail call float @llvm.fmuladd.f32(float %10, float 0x3FE99999A0000000, float %7)
  %12 = getelementptr inbounds nuw i8, ptr %.016, i64 4
  store float %11, ptr %12, align 4
  %13 = add nsw i32 %.01115, -1
  %14 = getelementptr inbounds nuw i8, ptr %.01214, i64 12
  %15 = getelementptr inbounds nuw i8, ptr %.016, i64 8
  %.not = icmp eq i32 %13, 0
  br i1 %.not, label %._crit_edge, label %.lr.ph, !llvm.loop !65

._crit_edge:                                      ; preds = %.lr.ph, %3
  ret void
}